Certificate:
    Data:
        Version: 3 (0x2)
        Serial Number: 1 (0x1)
    Signature Algorithm: sha256WithRSAEncryption
        Issuer: C=CA, ST=New Brunswick, L=Moncton, O=Garago Software, CN=burtonize.me/emailAddress=mathieu@garago.ca
        Validity
            Not Before: Jan 11 19:05:43 2017 GMT
            Not After : Oct  8 19:05:43 2019 GMT
        Subject: C=CA, ST=New Brunswick, L=Moncton, O=garago Software, CN=burtonize.me
        Subject Public Key Info:
            Public Key Algorithm: rsaEncryption
                Public-Key: (2048 bit)
                Modulus:
                    00:b8:84:fd:d3:bd:94:96:bc:81:39:af:50:1c:a2:
                    de:e4:37:48:33:89:00:85:30:0c:79:2d:06:83:29:
                    f2:8a:53:63:9e:31:0f:14:84:1e:7f:5b:17:85:24:
                    29:66:78:66:3c:24:be:6d:c0:0c:0d:09:45:f6:3f:
                    4d:49:b2:10:1a:05:e2:81:c3:f6:ce:cd:fb:28:d0:
                    91:c9:fe:a5:dd:3f:ea:0e:d4:70:99:5d:dd:20:f4:
                    ba:df:96:6f:6d:b4:c4:c0:0a:6f:52:67:03:b7:50:
                    9c:8e:6a:38:40:2f:4f:e4:eb:6d:d0:b4:2a:4c:cb:
                    fe:c6:5c:6b:54:37:8a:92:05:b0:25:dc:c7:ae:67:
                    28:d2:2d:50:91:25:0a:a3:3f:82:40:20:4f:ba:21:
                    96:49:75:2f:41:36:bb:67:1d:b4:4b:e9:85:a9:99:
                    21:bb:80:c5:0f:4a:1a:39:ed:6d:ef:75:bb:f1:75:
                    10:70:50:c5:a4:09:5f:43:3b:3a:09:f1:e4:e4:bc:
                    c6:c0:83:16:a5:a3:08:07:a3:2f:91:59:64:1b:3d:
                    9f:3c:59:c0:b9:9c:57:30:8c:99:33:9c:c9:d6:f0:
                    5d:9a:84:d8:50:c5:7d:3c:92:55:21:53:b7:b8:98:
                    9c:5e:9e:92:52:07:74:ab:6a:58:5b:29:77:49:ff:
                    e3:f5
                Exponent: 65537 (0x10001)
        X509v3 extensions:
            X509v3 Subject Key Identifier: 
                8D:B6:9C:D0:32:47:B6:34:B9:71:F4:7A:52:31:54:F0:EA:B9:25:35
            X509v3 Authority Key Identifier: 
                keyid:4D:8E:C4:21:51:1C:C1:80:81:D8:69:28:D7:7C:B3:36:29:9B:A2:4D

            X509v3 Basic Constraints: 
                CA:FALSE
            X509v3 Key Usage: 
                Digital Signature, Key Encipherment
            Netscape Comment: 
                OpenSSL Generated Certificate
    Signature Algorithm: sha256WithRSAEncryption
         1a:ff:fc:85:a3:8c:e4:42:5b:b0:ad:44:f2:c8:e4:2f:bd:a5:
         e4:a4:26:f7:9c:11:d6:ba:f2:a1:20:e5:4d:d5:81:48:b5:a5:
         d1:42:46:06:27:f3:1a:de:0e:b8:e8:21:2c:bc:40:f6:3e:6f:
         7b:0d:f1:c4:1e:ac:29:00:89:19:f9:7f:5f:3b:f9:3a:cf:ef:
         5c:a2:d3:7a:0c:66:df:84:68:3d:31:1d:04:d8:4b:17:5e:fa:
         02:b1:99:0c:11:d2:e6:a8:87:02:73:d9:22:4b:d4:52:b6:53:
         73:f3:88:6d:1d:12:81:51:6b:d0:a2:74:d4:f5:f6:24:d6:9f:
         7b:a4:3c:3e:ad:d9:52:42:eb:be:86:8f:f6:0c:33:ef:28:49:
         9c:e1:9e:80:d5:8d:92:27:ff:62:ab:94:72:fd:5d:73:fb:3e:
         5f:af:9f:8f:65:5a:82:99:af:3a:02:6c:0f:dc:19:1f:c5:c5:
         c5:09:94:e7:49:7c:69:24:5b:85:5e:6c:c9:ba:94:e5:9c:e0:
         8d:6b:54:a6:c5:fd:c9:cf:37:56:5a:b2:0e:2a:44:01:e3:e4:
         e5:f6:ca:54:81:a4:a9:77:c5:e4:fd:f6:34:93:0d:7b:1e:47:
         ad:97:2f:ae:4f:ee:da:7f:e0:c8:56:b4:09:c3:9b:c2:ed:25:
         4f:57:4d:19:66:80:f1:45:6b:01:03:31:c1:6e:1b:fb:49:ae:
         d2:33:6e:9a:ed:d9:59:3b:35:39:62:aa:d0:41:db:7b:08:b2:
         80:d1:c5:4f:4f:8a:97:5f:20:c5:f9:1c:8c:5f:4a:ec:19:cb:
         45:4a:09:61:9b:e6:c2:b6:2c:19:c1:48:47:72:c5:e6:10:72:
         ea:78:03:da:a2:aa:91:34:7a:d2:0a:86:36:77:02:2f:81:16:
         84:f2:30:53:d7:99:ea:c3:78:00:05:f7:12:96:c7:62:84:ee:
         3d:6a:64:32:df:b7:1d:d9:76:86:29:e7:b8:7c:9f:c4:18:74:
         60:eb:7d:8f:15:96:36:85:d2:b7:61:4a:1a:c5:eb:02:c3:aa:
         30:10:a1:05:61:b8:e9:46:8e:53:97:09:f9:3d:0b:6d:f1:29:
         f0:5f:00:08:0d:fb:88:0f:96:3f:eb:63:bd:4e:1a:bb:94:47:
         aa:16:a9:1e:8f:9b:f5:aa:75:4e:33:c9:0a:61:21:a4:60:f5:
         2c:d9:03:5d:0b:a6:8b:49:8a:91:60:1f:1f:ec:44:8e:36:12:
         dd:30:a6:d5:8f:78:ee:9b:4a:38:f0:7c:88:e1:0d:b0:59:df:
         bb:a5:de:52:8c:6d:66:08:07:81:0f:c9:90:c7:2c:92:bf:46:
         e2:47:65:d6:d0:4a:2e:7a
-----BEGIN CERTIFICATE-----
MIIE+DCCAuCgAwIBAgIBATANBgkqhkiG9w0BAQsFADCBijELMAkGA1UEBhMCQ0Ex
FjAUBgNVBAgMDU5ldyBCcnVuc3dpY2sxEDAOBgNVBAcMB01vbmN0b24xGDAWBgNV
BAoMD0dhcmFnbyBTb2Z0d2FyZTEVMBMGA1UEAwwMYnVydG9uaXplLm1lMSAwHgYJ
KoZIhvcNAQkBFhFtYXRoaWV1QGdhcmFnby5jYTAeFw0xNzAxMTExOTA1NDNaFw0x
OTEwMDgxOTA1NDNaMGgxCzAJBgNVBAYTAkNBMRYwFAYDVQQIDA1OZXcgQnJ1bnN3
aWNrMRAwDgYDVQQHDAdNb25jdG9uMRgwFgYDVQQKDA9nYXJhZ28gU29mdHdhcmUx
FTATBgNVBAMMDGJ1cnRvbml6ZS5tZTCCASIwDQYJKoZIhvcNAQEBBQADggEPADCC
AQoCggEBALiE/dO9lJa8gTmvUByi3uQ3SDOJAIUwDHktBoMp8opTY54xDxSEHn9b
F4UkKWZ4Zjwkvm3ADA0JRfY/TUmyEBoF4oHD9s7N+yjQkcn+pd0/6g7UcJld3SD0
ut+Wb220xMAKb1JnA7dQnI5qOEAvT+TrbdC0KkzL/sZca1Q3ipIFsCXcx65nKNIt
UJElCqM/gkAgT7ohlkl1L0E2u2cdtEvphamZIbuAxQ9KGjntbe91u/F1EHBQxaQJ
X0M7Ognx5OS8xsCDFqWjCAejL5FZZBs9nzxZwLmcVzCMmTOcydbwXZqE2FDFfTyS
VSFTt7iYnF6eklIHdKtqWFspd0n/4/UCAwEAAaOBiTCBhjAdBgNVHQ4EFgQUjbac
0DJHtjS5cfR6UjFU8Oq5JTUwHwYDVR0jBBgwFoAUTY7EIVEcwYCB2Gko13yzNimb
ok0wCQYDVR0TBAIwADALBgNVHQ8EBAMCBaAwLAYJYIZIAYb4QgENBB8WHU9wZW5T
U0wgR2VuZXJhdGVkIENlcnRpZmljYXRlMA0GCSqGSIb3DQEBCwUAA4ICAQAa//yF
o4zkQluwrUTyyOQvvaXkpCb3nBHWuvKhIOVN1YFItaXRQkYGJ/Ma3g646CEsvED2
Pm97DfHEHqwpAIkZ+X9fO/k6z+9cotN6DGbfhGg9MR0E2EsXXvoCsZkMEdLmqIcC
c9kiS9RStlNz84htHRKBUWvQonTU9fYk1p97pDw+rdlSQuu+ho/2DDPvKEmc4Z6A
1Y2SJ/9iq5Ry/V1z+z5fr5+PZVqCma86AmwP3BkfxcXFCZTnSXxpJFuFXmzJupTl
nOCNa1Smxf3JzzdWWrIOKkQB4+Tl9spUgaSpd8Xk/fY0kw17Hketly+uT+7af+DI
VrQJw5vC7SVPV00ZZoDxRWsBAzHBbhv7Sa7SM26a7dlZOzU5YqrQQdt7CLKA0cVP
T4qXXyDF+RyMX0rsGctFSglhm+bCtiwZwUhHcsXmEHLqeAPaoqqRNHrSCoY2dwIv
gRaE8jBT15nqw3gABfcSlsdihO49amQy37cd2XaGKee4fJ/EGHRg632PFZY2hdK3
YUoaxesCw6owEKEFYbjpRo5Tlwn5PQtt8SnwXwAIDfuID5Y/62O9Thq7lEeqFqke
j5v1qnVOM8kKYSGkYPUs2QNdC6aLSYqRYB8f7ESONhLdMKbVj3jum0o48HyI4Q2w
Wd+7pd5SjG1mCAeBD8mQxyySv0biR2XW0Eoueg==
-----END CERTIFICATE-----
